target datalayout = "e-m:e-p270:32:32-p271:32:32-p272:64:64-i64:64-i128:128-f80:128-n8:16:32:64-S128"
target triple = "x86_64-pc-linux-gnu"

%struct.option = type { i32, i32, ptr, ptr, ptr, ptr, i32, ptr, i64, ptr, i64, ptr }

@.str = private unnamed_addr constant [8 x i8] c"dry-run\00", align 1
@.str.1 = private unnamed_addr constant [8 x i8] c"dry run\00", align 1
@.str.2 = private unnamed_addr constant [6 x i8] c"quiet\00", align 1
@.str.3 = private unnamed_addr constant [9 x i8] c"be quiet\00", align 1
@prune_packed_usage = internal constant [2 x ptr] [ptr @.str.5, ptr null], align 16
@.str.4 = private unnamed_addr constant [19 x i8] c"too many arguments\00", align 1
@.str.5 = private unnamed_addr constant [49 x i8] c"git prune-packed [-n | --dry-run] [-q | --quiet]\00", align 1
@.str.6 = private unnamed_addr constant [1 x i8] zeroinitializer, align 1
@git_gettext_enabled = external global i32, align 4

; Function Attrs: nounwind uwtable
define dso_local i32 @cmd_prune_packed(i32 noundef %0, ptr noundef %1, ptr noundef %2, ptr noundef %3) #0 {
  %5 = alloca i32, align 4
  %6 = alloca ptr, align 8
  %7 = alloca ptr, align 8
  %8 = alloca ptr, align 8
  %9 = alloca i32, align 4
  %10 = alloca [3 x %struct.option], align 16
  store i32 %0, ptr %5, align 4, !tbaa !4
  store ptr %1, ptr %6, align 8, !tbaa !8
  store ptr %2, ptr %7, align 8, !tbaa !11
  store ptr %3, ptr %8, align 8, !tbaa !13
  call void @llvm.lifetime.start.p0(i64 4, ptr %9) #7
  %11 = call i32 @isatty(i32 noundef 2) #7
  %12 = icmp ne i32 %11, 0
  %13 = select i1 %12, i32 2, i32 0
  store i32 %13, ptr %9, align 4, !tbaa !4
  call void @llvm.lifetime.start.p0(i64 264, ptr %10) #7
  %14 = getelementptr inbounds nuw %struct.option, ptr %10, i32 0, i32 0
  store i32 5, ptr %14, align 8, !tbaa !15
  %15 = getelementptr inbounds nuw %struct.option, ptr %10, i32 0, i32 1
  store i32 110, ptr %15, align 4, !tbaa !18
  %16 = getelementptr inbounds nuw %struct.option, ptr %10, i32 0, i32 2
  store ptr @.str, ptr %16, align 8, !tbaa !19
  %17 = getelementptr inbounds nuw %struct.option, ptr %10, i32 0, i32 3
  store ptr %9, ptr %17, align 8, !tbaa !20
  %18 = getelementptr inbounds nuw %struct.option, ptr %10, i32 0, i32 4
  store ptr null, ptr %18, align 8, !tbaa !21
  %19 = getelementptr inbounds nuw %struct.option, ptr %10, i32 0, i32 5
  store ptr @.str.1, ptr %19, align 8, !tbaa !22
  %20 = getelementptr inbounds nuw %struct.option, ptr %10, i32 0, i32 6
  store i32 2, ptr %20, align 8, !tbaa !23
  %21 = getelementptr i8, ptr %10, i64 44
  call void @llvm.memset.p0.i64(ptr align 4 %21, i8 0, i64 4, i1 false)
  %22 = getelementptr inbounds nuw %struct.option, ptr %10, i32 0, i32 7
  store ptr null, ptr %22, align 8, !tbaa !24
  %23 = getelementptr inbounds nuw %struct.option, ptr %10, i32 0, i32 8
  store i64 1, ptr %23, align 8, !tbaa !25
  %24 = getelementptr inbounds nuw %struct.option, ptr %10, i32 0, i32 9
  store ptr null, ptr %24, align 8, !tbaa !26
  %25 = getelementptr inbounds nuw %struct.option, ptr %10, i32 0, i32 10
  store i64 0, ptr %25, align 8, !tbaa !27
  %26 = getelementptr inbounds nuw %struct.option, ptr %10, i32 0, i32 11
  store ptr null, ptr %26, align 8, !tbaa !28
  %27 = getelementptr inbounds %struct.option, ptr %10, i64 1
  %28 = getelementptr inbounds nuw %struct.option, ptr %27, i32 0, i32 0
  store i32 6, ptr %28, align 8, !tbaa !15
  %29 = getelementptr inbounds nuw %struct.option, ptr %27, i32 0, i32 1
  store i32 113, ptr %29, align 4, !tbaa !18
  %30 = getelementptr inbounds nuw %struct.option, ptr %27, i32 0, i32 2
  store ptr @.str.2, ptr %30, align 8, !tbaa !19
  %31 = getelementptr inbounds nuw %struct.option, ptr %27, i32 0, i32 3
  store ptr %9, ptr %31, align 8, !tbaa !20
  %32 = getelementptr inbounds nuw %struct.option, ptr %27, i32 0, i32 4
  store ptr null, ptr %32, align 8, !tbaa !21
  %33 = getelementptr inbounds nuw %struct.option, ptr %27, i32 0, i32 5
  store ptr @.str.3, ptr %33, align 8, !tbaa !22
  %34 = getelementptr inbounds nuw %struct.option, ptr %27, i32 0, i32 6
  store i32 2, ptr %34, align 8, !tbaa !23
  %35 = getelementptr i8, ptr %27, i64 44
  call void @llvm.memset.p0.i64(ptr align 4 %35, i8 0, i64 4, i1 false)
  %36 = getelementptr inbounds nuw %struct.option, ptr %27, i32 0, i32 7
  store ptr null, ptr %36, align 8, !tbaa !24
  %37 = getelementptr inbounds nuw %struct.option, ptr %27, i32 0, i32 8
  store i64 2, ptr %37, align 8, !tbaa !25
  %38 = getelementptr inbounds nuw %struct.option, ptr %27, i32 0, i32 9
  store ptr null, ptr %38, align 8, !tbaa !26
  %39 = getelementptr inbounds nuw %struct.option, ptr %27, i32 0, i32 10
  store i64 0, ptr %39, align 8, !tbaa !27
  %40 = getelementptr inbounds nuw %struct.option, ptr %27, i32 0, i32 11
  store ptr null, ptr %40, align 8, !tbaa !28
  %41 = getelementptr inbounds %struct.option, ptr %10, i64 2
  call void @llvm.memset.p0.i64(ptr align 8 %41, i8 0, i64 88, i1 false)
  %42 = getelementptr inbounds nuw %struct.option, ptr %41, i32 0, i32 0
  store i32 0, ptr %42, align 8, !tbaa !15
  %43 = load i32, ptr %5, align 4, !tbaa !4
  %44 = load ptr, ptr %6, align 8, !tbaa !8
  %45 = load ptr, ptr %7, align 8, !tbaa !11
  %46 = getelementptr inbounds [3 x %struct.option], ptr %10, i64 0, i64 0
  %47 = call i32 @parse_options(i32 noundef %43, ptr noundef %44, ptr noundef %45, ptr noundef %46, ptr noundef @prune_packed_usage, i32 noundef 0)
  store i32 %47, ptr %5, align 4, !tbaa !4
  %48 = load i32, ptr %5, align 4, !tbaa !4
  %49 = icmp sgt i32 %48, 0
  br i1 %49, label %50, label %53

50:                                               ; preds = %4
  %51 = call ptr @_(ptr noundef @.str.4)
  %52 = getelementptr inbounds [3 x %struct.option], ptr %10, i64 0, i64 0
  call void @usage_msg_opt(ptr noundef %51, ptr noundef @prune_packed_usage, ptr noundef %52) #8
  unreachable

53:                                               ; preds = %4
  %54 = load i32, ptr %9, align 4, !tbaa !4
  call void @prune_packed_objects(i32 noundef %54)
  call void @llvm.lifetime.end.p0(i64 264, ptr %10) #7
  call void @llvm.lifetime.end.p0(i64 4, ptr %9) #7
  ret i32 0
}

; Function Attrs: nocallback nofree nosync nounwind willreturn memory(argmem: readwrite)
declare void @llvm.lifetime.start.p0(i64 immarg, ptr captures(none)) #1

; Function Attrs: nounwind
declare i32 @isatty(i32 noundef) #2

; Function Attrs: nocallback nofree nounwind willreturn memory(argmem: write)
declare void @llvm.memset.p0.i64(ptr writeonly captures(none), i8, i64, i1 immarg) #3

declare i32 @parse_options(i32 noundef, ptr noundef, ptr noundef, ptr noundef, ptr noundef, i32 noundef) #4

; Function Attrs: noreturn
declare void @usage_msg_opt(ptr noundef, ptr noundef, ptr noundef) #5

; Function Attrs: inlinehint nounwind uwtable
define internal ptr @_(ptr noundef %0) #6 {
  %2 = alloca ptr, align 8
  %3 = alloca ptr, align 8
  store ptr %0, ptr %3, align 8, !tbaa !11
  %4 = load ptr, ptr %3, align 8, !tbaa !11
  %5 = load i8, ptr %4, align 1, !tbaa !29
  %6 = icmp ne i8 %5, 0
  br i1 %6, label %8, label %7

7:                                                ; preds = %1
  store ptr @.str.6, ptr %2, align 8
  br label %16

8:                                                ; preds = %1
  %9 = load i32, ptr @git_gettext_enabled, align 4, !tbaa !4
  %10 = icmp ne i32 %9, 0
  br i1 %10, label %13, label %11

11:                                               ; preds = %8
  %12 = load ptr, ptr %3, align 8, !tbaa !11
  store ptr %12, ptr %2, align 8
  br label %16

13:                                               ; preds = %8
  %14 = load ptr, ptr %3, align 8, !tbaa !11
  %15 = call ptr @dcgettext(ptr noundef null, ptr noundef %14, i32 noundef 5) #7
  store ptr %15, ptr %2, align 8
  br label %16

16:                                               ; preds = %13, %11, %7
  %17 = load ptr, ptr %2, align 8
  ret ptr %17
}

declare void @prune_packed_objects(i32 noundef) #4

; Function Attrs: nocallback nofree nosync nounwind willreturn memory(argmem: readwrite)
declare void @llvm.lifetime.end.p0(i64 immarg, ptr captures(none)) #1

; Function Attrs: nounwind
declare ptr @dcgettext(ptr noundef, ptr noundef, i32 noundef) #2


!llvm.module.flags = !{!0, !1, !2, !3}

!0 = !{i32 1, !"wchar_size", i32 4}
!1 = !{i32 8, !"PIC Level", i32 2}
!2 = !{i32 7, !"PIE Level", i32 2}
!3 = !{i32 7, !"uwtable", i32 2}
!4 = !{!5, !5, i64 0}
!5 = !{!"int", !6, i64 0}
!6 = !{!"omnipotent char", !7, i64 0}
!7 = !{!"Simple C/C++ TBAA"}
!8 = !{!9, !9, i64 0}
!9 = !{!"p2 omnipotent char", !10, i64 0}
!10 = !{!"any pointer", !6, i64 0}
!11 = !{!12, !12, i64 0}
!12 = !{!"p1 omnipotent char", !10, i64 0}
!13 = !{!14, !14, i64 0}
!14 = !{!"p1 _ZTS10repository", !10, i64 0}
!15 = !{!16, !5, i64 0}
!16 = !{!"option", !5, i64 0, !5, i64 4, !12, i64 8, !10, i64 16, !12, i64 24, !12, i64 32, !5, i64 40, !10, i64 48, !17, i64 56, !10, i64 64, !17, i64 72, !10, i64 80}
!17 = !{!"long", !6, i64 0}
!18 = !{!16, !5, i64 4}
!19 = !{!16, !12, i64 8}
!20 = !{!16, !10, i64 16}
!21 = !{!16, !12, i64 24}
!22 = !{!16, !12, i64 32}
!23 = !{!16, !5, i64 40}
!24 = !{!16, !10, i64 48}
!25 = !{!16, !17, i64 56}
!26 = !{!16, !10, i64 64}
!27 = !{!16, !17, i64 72}
!28 = !{!16, !10, i64 80}
!29 = !{!6, !6, i64 0}
